target datalayout = "e-m:e-p270:32:32-p271:32:32-p272:64:64-i64:64-i128:128-f80:128-n8:16:32:64-S128"
target triple = "x86_64-pc-linux-gnu"

%class.BigInteger = type { i32, %class.BigUnsigned }
%class.BigUnsigned = type { %class.NumberlikeArray }
%class.NumberlikeArray = type { i32, i32, ptr }

@_ZTIPKc = external constant ptr
@.str.2 = private unnamed_addr constant [102 x i8] c"BigInteger::BigInteger(const BigUnsigned &, Sign): Cannot use a sign of zero with a nonzero magnitude\00", align 1
@.str.3 = private unnamed_addr constant [64 x i8] c"BigInteger::BigInteger(const BigUnsigned &, Sign): Invalid sign\00", align 1

; Function Attrs: mustprogress nounwind uwtable
define linkonce_odr noundef zeroext i1 @_ZNK15NumberlikeArrayImE7isEmptyEv(ptr noundef nonnull align 8 dereferenceable(16) %0) #1 comdat align 2 {
  %2 = alloca ptr, align 8
  store ptr %0, ptr %2, align 8, !tbaa !25
  %3 = load ptr, ptr %2, align 8
  %4 = getelementptr inbounds nuw %class.NumberlikeArray, ptr %3, i32 0, i32 1
  %5 = load i32, ptr %4, align 4, !tbaa !32
  %6 = icmp eq i32 %5, 0
  ret i1 %6
}

; Function Attrs: mustprogress uwtable
define linkonce_odr void @_ZN15NumberlikeArrayImEC2ERKS0_(ptr noundef nonnull align 8 dereferenceable(16) %0, ptr noundef nonnull align 8 dereferenceable(16) %1) unnamed_addr #0 comdat align 2 {
  %3 = alloca ptr, align 8
  %4 = alloca ptr, align 8
  %5 = alloca i32, align 4
  store ptr %0, ptr %3, align 8, !tbaa !25
  store ptr %1, ptr %4, align 8, !tbaa !25
  %6 = load ptr, ptr %3, align 8
  %7 = getelementptr inbounds nuw %class.NumberlikeArray, ptr %6, i32 0, i32 1
  %8 = load ptr, ptr %4, align 8, !tbaa !25
  %9 = getelementptr inbounds nuw %class.NumberlikeArray, ptr %8, i32 0, i32 1
  %10 = load i32, ptr %9, align 4, !tbaa !32
  store i32 %10, ptr %7, align 4, !tbaa !32
  %11 = getelementptr inbounds nuw %class.NumberlikeArray, ptr %6, i32 0, i32 1
  %12 = load i32, ptr %11, align 4, !tbaa !32
  %13 = getelementptr inbounds nuw %class.NumberlikeArray, ptr %6, i32 0, i32 0
  store i32 %12, ptr %13, align 8, !tbaa !35
  %14 = getelementptr inbounds nuw %class.NumberlikeArray, ptr %6, i32 0, i32 0
  %15 = load i32, ptr %14, align 8, !tbaa !35
  %16 = zext i32 %15 to i64
  %17 = call { i64, i1 } @llvm.umul.with.overflow.i64(i64 %16, i64 8)
  %18 = extractvalue { i64, i1 } %17, 1
  %19 = extractvalue { i64, i1 } %17, 0
  %20 = select i1 %18, i64 -1, i64 %19
  %21 = call noalias noundef nonnull ptr @_Znam(i64 noundef %20) #12
  %22 = getelementptr inbounds nuw %class.NumberlikeArray, ptr %6, i32 0, i32 2
  store ptr %21, ptr %22, align 8, !tbaa !27
  call void @llvm.lifetime.start.p0(i64 4, ptr %5) #9
  store i32 0, ptr %5, align 4, !tbaa !21
  br label %23

23:                                               ; preds = %41, %2
  %24 = load i32, ptr %5, align 4, !tbaa !21
  %25 = getelementptr inbounds nuw %class.NumberlikeArray, ptr %6, i32 0, i32 1
  %26 = load i32, ptr %25, align 4, !tbaa !32
  %27 = icmp ult i32 %24, %26
  br i1 %27, label %28, label %44

28:                                               ; preds = %23
  %29 = load ptr, ptr %4, align 8, !tbaa !25
  %30 = getelementptr inbounds nuw %class.NumberlikeArray, ptr %29, i32 0, i32 2
  %31 = load ptr, ptr %30, align 8, !tbaa !27
  %32 = load i32, ptr %5, align 4, !tbaa !21
  %33 = zext i32 %32 to i64
  %34 = getelementptr inbounds nuw i64, ptr %31, i64 %33
  %35 = load i64, ptr %34, align 8, !tbaa !28
  %36 = getelementptr inbounds nuw %class.NumberlikeArray, ptr %6, i32 0, i32 2
  %37 = load ptr, ptr %36, align 8, !tbaa !27
  %38 = load i32, ptr %5, align 4, !tbaa !21
  %39 = zext i32 %38 to i64
  %40 = getelementptr inbounds nuw i64, ptr %37, i64 %39
  store i64 %35, ptr %40, align 8, !tbaa !28
  br label %41

41:                                               ; preds = %28
  %42 = load i32, ptr %5, align 4, !tbaa !21
  %43 = add i32 %42, 1
  store i32 %43, ptr %5, align 4, !tbaa !21
  br label %23, !llvm.loop !38

44:                                               ; preds = %23
  call void @llvm.lifetime.end.p0(i64 4, ptr %5) #9
  ret void
}

; Function Attrs: mustprogress nounwind uwtable
define linkonce_odr void @_ZN15NumberlikeArrayImED2Ev(ptr noundef nonnull align 8 dereferenceable(16) %0) unnamed_addr #1 comdat align 2 {
  %2 = alloca ptr, align 8
  store ptr %0, ptr %2, align 8, !tbaa !25
  %3 = load ptr, ptr %2, align 8
  %4 = getelementptr inbounds nuw %class.NumberlikeArray, ptr %3, i32 0, i32 2
  %5 = load ptr, ptr %4, align 8, !tbaa !27
  %6 = icmp eq ptr %5, null
  br i1 %6, label %8, label %7

7:                                                ; preds = %1
  call void @_ZdaPv(ptr noundef %5) #11
  br label %8

8:                                                ; preds = %7, %1
  ret void
}

; Function Attrs: mustprogress uwtable
define linkonce_odr noundef zeroext i1 @_ZNK11BigUnsigned6isZeroEv(ptr noundef nonnull align 8 dereferenceable(16) %0) #0 comdat align 2 {
  %2 = alloca ptr, align 8
  store ptr %0, ptr %2, align 8, !tbaa !18
  %3 = load ptr, ptr %2, align 8
  %4 = call noundef zeroext i1 @_ZNK15NumberlikeArrayImE7isEmptyEv(ptr noundef nonnull align 8 dereferenceable(16) %3)
  ret i1 %4
}

; Function Attrs: mustprogress uwtable
define linkonce_odr void @_ZN11BigUnsignedC2ERKS_(ptr noundef nonnull align 8 dereferenceable(16) %0, ptr noundef nonnull align 8 dereferenceable(16) %1) unnamed_addr #0 comdat align 2 {
  %3 = alloca ptr, align 8
  %4 = alloca ptr, align 8
  store ptr %0, ptr %3, align 8, !tbaa !18
  store ptr %1, ptr %4, align 8, !tbaa !18
  %5 = load ptr, ptr %3, align 8
  %6 = load ptr, ptr %4, align 8, !tbaa !18
  call void @_ZN15NumberlikeArrayImEC2ERKS0_(ptr noundef nonnull align 8 dereferenceable(16) %5, ptr noundef nonnull align 8 dereferenceable(16) %6)
  ret void
}

; Function Attrs: mustprogress uwtable
define void @_ZN10BigIntegerC2ERK11BigUnsignedNS_4SignE(ptr noundef nonnull align 8 dereferenceable(24) %0, ptr noundef nonnull align 8 dereferenceable(16) %1, i32 noundef %2) unnamed_addr #0 align 2 personality ptr @__gxx_personality_v0 {
  %4 = alloca ptr, align 8
  %5 = alloca ptr, align 8
  %6 = alloca i32, align 4
  %7 = alloca ptr, align 8
  %8 = alloca i32, align 4
  store ptr %0, ptr %4, align 8, !tbaa !6
  store ptr %1, ptr %5, align 8, !tbaa !18
  store i32 %2, ptr %6, align 4, !tbaa !22
  %9 = load ptr, ptr %4, align 8
  %10 = getelementptr inbounds nuw %class.BigInteger, ptr %9, i32 0, i32 1
  %11 = load ptr, ptr %5, align 8, !tbaa !18
  call void @_ZN11BigUnsignedC2ERKS_(ptr noundef nonnull align 8 dereferenceable(16) %10, ptr noundef nonnull align 8 dereferenceable(16) %11)
  %12 = load i32, ptr %6, align 4, !tbaa !22
  switch i32 %12, label %35 [
    i32 0, label %13
    i32 1, label %25
    i32 -1, label %25
  ]

13:                                               ; preds = %3
  %14 = getelementptr inbounds nuw %class.BigInteger, ptr %9, i32 0, i32 1
  %15 = invoke noundef zeroext i1 @_ZNK11BigUnsigned6isZeroEv(ptr noundef nonnull align 8 dereferenceable(16) %14)
          to label %16 unwind label %19

16:                                               ; preds = %13
  br i1 %15, label %23, label %17

17:                                               ; preds = %16
  %18 = call ptr @__cxa_allocate_exception(i64 8) #9
  store ptr @.str.2, ptr %18, align 16, !tbaa !23
  invoke void @__cxa_throw(ptr %18, ptr @_ZTIPKc, ptr null) #10
          to label %43 unwind label %19

19:                                               ; preds = %35, %25, %17, %13
  %20 = landingpad { ptr, i32 }
          cleanup
  %21 = extractvalue { ptr, i32 } %20, 0
  store ptr %21, ptr %7, align 8
  %22 = extractvalue { ptr, i32 } %20, 1
  store i32 %22, ptr %8, align 4
  call void @_ZN15NumberlikeArrayImED2Ev(ptr noundef nonnull align 8 dereferenceable(16) %10) #9
  br label %38

23:                                               ; preds = %16
  %24 = getelementptr inbounds nuw %class.BigInteger, ptr %9, i32 0, i32 0
  store i32 0, ptr %24, align 8, !tbaa !11
  br label %37

25:                                               ; preds = %3, %3
  %26 = getelementptr inbounds nuw %class.BigInteger, ptr %9, i32 0, i32 1
  %27 = invoke noundef zeroext i1 @_ZNK11BigUnsigned6isZeroEv(ptr noundef nonnull align 8 dereferenceable(16) %26)
          to label %28 unwind label %19

28:                                               ; preds = %25
  br i1 %27, label %29, label %30

29:                                               ; preds = %28
  br label %32

30:                                               ; preds = %28
  %31 = load i32, ptr %6, align 4, !tbaa !22
  br label %32

32:                                               ; preds = %30, %29
  %33 = phi i32 [ 0, %29 ], [ %31, %30 ]
  %34 = getelementptr inbounds nuw %class.BigInteger, ptr %9, i32 0, i32 0
  store i32 %33, ptr %34, align 8, !tbaa !11
  br label %37

35:                                               ; preds = %3
  %36 = call ptr @__cxa_allocate_exception(i64 8) #9
  store ptr @.str.3, ptr %36, align 16, !tbaa !23
  invoke void @__cxa_throw(ptr %36, ptr @_ZTIPKc, ptr null) #10
          to label %43 unwind label %19

37:                                               ; preds = %32, %23
  ret void

38:                                               ; preds = %19
  %39 = load ptr, ptr %7, align 8
  %40 = load i32, ptr %8, align 4
  %41 = insertvalue { ptr, i32 } poison, ptr %39, 0
  %42 = insertvalue { ptr, i32 } %41, i32 %40, 1
  resume { ptr, i32 } %42

43:                                               ; preds = %35, %17
  unreachable
}