; Function Attrs: mustprogress uwtable
define void @_ZN10BigIntegerC2ERK11BigUnsignedNS_4SignE(ptr noundef nonnull align 8 captures(none) dereferenceable(24) initializes((8, 24)) %0, ptr noundef nonnull readonly align 8 captures(none) dereferenceable(16) %1, i32 noundef %2) unnamed_addr #0 align 2 personality ptr @__gxx_personality_v0 {
  %4 = getelementptr inbounds nuw i8, ptr %0, i64 8
  %5 = getelementptr inbounds nuw i8, ptr %0, i64 12
  %6 = getelementptr inbounds nuw i8, ptr %1, i64 4
  %7 = load i32, ptr %6, align 4, !tbaa !16
  store i32 %7, ptr %5, align 4, !tbaa !16
  store i32 %7, ptr %4, align 8, !tbaa !17
  %8 = zext i32 %7 to i64
  %9 = shl nuw nsw i64 %8, 3
  %10 = tail call noalias noundef nonnull ptr @_Znam(i64 noundef %9) #10
  %11 = getelementptr inbounds nuw i8, ptr %0, i64 16
  store ptr %10, ptr %11, align 8, !tbaa !18
  %.not.i.i = icmp eq i32 %7, 0
  br i1 %.not.i.i, label %_ZN11BigUnsignedC2ERKS_.exit, label %.lr.ph.i.i

.lr.ph.i.i:                                       ; preds = %3
  %12 = getelementptr inbounds nuw i8, ptr %1, i64 8
  %13 = load ptr, ptr %12, align 8, !tbaa !18
  br label %14

14:                                               ; preds = %14, %.lr.ph.i.i
  %indvars.iv.i.i = phi i64 [ 0, %.lr.ph.i.i ], [ %indvars.iv.next.i.i, %14 ]
  %15 = getelementptr inbounds nuw i64, ptr %13, i64 %indvars.iv.i.i
  %16 = load i64, ptr %15, align 8, !tbaa !19
  %17 = getelementptr inbounds nuw i64, ptr %10, i64 %indvars.iv.i.i
  store i64 %16, ptr %17, align 8, !tbaa !19
  %indvars.iv.next.i.i = add nuw nsw i64 %indvars.iv.i.i, 1
  %exitcond.not.i.i = icmp eq i64 %indvars.iv.next.i.i, %8
  br i1 %exitcond.not.i.i, label %_ZN11BigUnsignedC2ERKS_.exit, label %14, !llvm.loop !26

_ZN11BigUnsignedC2ERKS_.exit:                     ; preds = %14, %3
  switch i32 %2, label %.invoke [
    i32 0, label %18
    i32 1, label %24
    i32 -1, label %24
  ]

18:                                               ; preds = %_ZN11BigUnsignedC2ERKS_.exit
  br i1 %.not.i.i, label %27, label %.invoke

19:                                               ; preds = %.invoke
  %20 = landingpad { ptr, i32 }
          cleanup
  %21 = load ptr, ptr %11, align 8, !tbaa !18
  %22 = icmp eq ptr %21, null
  br i1 %22, label %_ZN15NumberlikeArrayImED2Ev.exit, label %23

23:                                               ; preds = %19
  tail call void @_ZdaPv(ptr noundef nonnull %21) #9
  br label %_ZN15NumberlikeArrayImED2Ev.exit

_ZN15NumberlikeArrayImED2Ev.exit:                 ; preds = %19, %23
  resume { ptr, i32 } %20

24:                                               ; preds = %_ZN11BigUnsignedC2ERKS_.exit, %_ZN11BigUnsignedC2ERKS_.exit
  %25 = select i1 %.not.i.i, i32 0, i32 %2
  br label %27

.invoke:                                          ; preds = %_ZN11BigUnsignedC2ERKS_.exit, %18
  %.str.2.sink = phi ptr [ @.str.2, %18 ], [ @.str.3, %_ZN11BigUnsignedC2ERKS_.exit ]
  %26 = tail call ptr @__cxa_allocate_exception(i64 8) #11
  store ptr %.str.2.sink, ptr %26, align 16, !tbaa !24
  invoke void @__cxa_throw(ptr nonnull %26, ptr nonnull @_ZTIPKc, ptr null) #12
          to label %.cont unwind label %19

.cont:                                            ; preds = %.invoke
  unreachable

27:                                               ; preds = %18, %24
  %storemerge = phi i32 [ %25, %24 ], [ 0, %18 ]
  store i32 %storemerge, ptr %0, align 8, !tbaa !6
  ret void
}